MPASM 5.86                          MAIN.ASM   8-31-2022  0:07:52         PAGE  1


LOC  OBJECT CODE     LINE SOURCE TEXT
  VALUE

                      00001 ; ==============================================================================
                      00002 ; =============================> DEVICE DEFINITION <============================
                      00003 ; ==============================================================================
                      00004         
                      00005         LIST    P=16F877A
                      00006         INCLUDE "P16F877A.INC"
                      00001         LIST
                      00002 
                      00003 ;==========================================================================
                      00004 ; Build date : Oct 24 2019
                      00005 ;  MPASM PIC16F877A processor include
                      00006 ; 
                      00007 ;  (c) Copyright 1999-2019 Microchip Technology, All rights reserved
                      00008 ;==========================================================================
                      00009 
                      00567         LIST
                      00007         
                      00008 ; ==============================================================================
                      00009 ; ===============================> CONFIG WORDS <===============================
                      00010 ; ==============================================================================
                      00011         
                      00012 ; CONFIG Fuses for 4 MHz XR, No WDT, No Power on Timer, No Low Voltage Programming
                      00013 ;        No code read protection and  No code Write protection
2007   3F39           00014  __CONFIG _FOSC_XT & _WDTE_OFF & _PWRTE_OFF & _BOREN_OFF & _LVP_OFF & _CPD_OFF & _WRT_OFF & _CP_OFF
                      00015  
                      00016 
                      00017         CBLOCK  0X20
  00000020            00018         BACKUP_W        ; W backup register for interrupt purposes
  00000021            00019         BACKUP_STA      ; Status backup register for interrupt purposes
  00000022            00020         TMR1_TICK       ; 500 ms Tick for TMR1 (2 Ticks mean 1 seg)
  00000023            00021         OPER_MODE       ; Single, Double or Emergency (Stop)
  00000024            00022         TIME1           ; Time 1 for single operation
  00000025            00023         TIME2           ; Time 2 for single operation
  00000026            00024         TIME3           ; Time 3 for single operation
  00000027            00025         TIME4           ; Time 4 for single operation
  00000028            00026         TIME1_D         ; Time 1 for Double Oper (The greater bet TIME1 and TIME3)
  00000029            00027         TIME2_D         ; Time 2 for Double Oper (The greater bet TIME2 and TIME4)
  0000002A            00028         TOTAL_TIME      ; Result of TIME1 + TIME2 + TIME3 + TIME4
  0000002B            00029         TIME1_BK        ; TIME1 Backup to restore timers when a cycle is completed
  0000002C            00030         TIME2_BK        ; TIME2 Backup
  0000002D            00031         TIME3_BK        ; TIME3 Backup
  0000002E            00032         TIME4_BK        ; TIME4 Backup
                      00033         ENDC
                      00034         
                      00035 #DEFINE OP_SING 1       ; Just operation mode definitions
                      00036 #DEFINE OP_DOUB 2
                      00037 #DEFINE OP_EMER 3
                      00038         
                      00039         
                      00040         
                      00041         RADIX   DEC
                      00042         
                      00043         
MPASM 5.86                          MAIN.ASM   8-31-2022  0:07:52         PAGE  2


LOC  OBJECT CODE     LINE SOURCE TEXT
  VALUE

                      00044         ORG     0X00    ; Reset Vector
0000   2???           00045         GOTO    SETUP
                      00046         
                      00047         ORG     0X04    ; Interrupt Vector
0004   2???           00048         GOTO    IRQ
                      00049         
                      00050         INCLUDE "Tempos.asm"    ; General delay file (Library)
                      00001 ; ==============================================================================
                      00002 ; ==================================> TEMPO <===================================
                      00003 ; ==============================================================================
                      00004         
                      00005                 CBLOCK  0X40
  00000040            00006                 PDel0
  00000041            00007                 PDel1
  00000042            00008                 PDel2
                      00009 
                      00010                 ENDC
                      00011                 
                      00012 ; ============================> TIMER1 VALUES LOAD <============================
                      00013                 
0005   300B           00014 TMR1_LD         MOVLW   0X0B
0006   008F           00015                 MOVWF   TMR1H
0007   30DB           00016                 MOVLW   0XDB
0008   008E           00017                 MOVWF   TMR1L
0009   1410           00018                 BSF     T1CON,TMR1ON
000A   0008           00019                 RETURN
                      00020 
                      00021 ; ============> 500 mS <=============
                      00022 
000B   30EF           00023 DELAY_500:      MOVLW   .239
000C   00C0           00024                 MOVWF   PDel0
000D   30E8           00025 PLoop5:         MOVLW   .232
000E   00C1           00026                 MOVWF   PDel1
000F   0064           00027 PLoop6:         CLRWDT
0010   2???           00028 DLoop6:         GOTO    DLoop7
0011   2???           00029 DLoop7:         GOTO    DLoop8
0012   0064           00030 DLoop8:         CLRWDT
0013   0BC1           00031                 DECFSZ  PDel1,1
0014   2???           00032                 GOTO    PLoop6
0015   0BC0           00033                 DECFSZ  PDel0,1
0016   2???           00034                 GOTO    PLoop5
0017   2???           00035 DLoop9:         GOTO    DLoop10
0018   2???           00036 DLoop10:        GOTO    DLoop11
0019   2???           00037 DLoop11:        GOTO    DLoop12
001A   0064           00038 DLoop12:        CLRWDT
001B   0008           00039                 RETURN
                      00040 
                      00041 
                      00042 ; ============> 100 mS <=============
                      00043 
001C   306E           00044 DELAY_100:      MOVLW   .110
001D   00C0           00045                 MOVWF   PDel0
001E   30B5           00046 PLoop3:         MOVLW   .181
MPASM 5.86                          MAIN.ASM   8-31-2022  0:07:52         PAGE  3


LOC  OBJECT CODE     LINE SOURCE TEXT
  VALUE

001F   00C1           00047                 MOVWF   PDel1
0020   0064           00048 PLoop4:         CLRWDT
0021   0064           00049                 CLRWDT
0022   0BC1           00050                 DECFSZ  PDel1,1
0023   2???           00051                 GOTO    PLoop4
0024   0BC0           00052                 DECFSZ  PDel0,1
0025   2???           00053                 GOTO    PLoop3
0026   2???           00054 DLoop3:         GOTO    DLoop4
0027   2???           00055 DLoop4:         GOTO    DLoop5
0028   0064           00056 DLoop5:         CLRWDT
0029   0008           00057                 RETURN
                      00058 
                      00059 ; ============> 50 mS <==============
                      00060 
002A   3037           00061 DELAY_50:       MOVLW   .55
002B   00C0           00062                 MOVWF   PDel0
002C   30B5           00063 PLoop13:        MOVLW   .181
002D   00C1           00064                 MOVWF   PDel1
002E   0064           00065 PLoop14:        CLRWDT
002F   0064           00066                 CLRWDT
0030   0BC1           00067                 DECFSZ  PDel1,1
0031   2???           00068                 GOTO    PLoop14
0032   0BC0           00069                 DECFSZ  PDel0,1
0033   2???           00070                 GOTO    PLoop13
0034   0008           00071                 RETURN
                      00072 
                      00073 ; ============> 20 mS <==============
                      00074 
0035   3015           00075 DELAY_20:       MOVLW   .21
0036   00C0           00076                 MOVWF   PDel0
0037   30ED           00077 PLoop15:        MOVLW   .237
0038   00C1           00078                 MOVWF   PDel1
0039   0064           00079 PLoop16:        CLRWDT
003A   0BC1           00080                 DECFSZ  PDel1, 1
003B   2???           00081                 GOTO    PLoop16
003C   0BC0           00082                 DECFSZ  PDel0,1
003D   2???           00083                 GOTO    PLoop15
003E   0064           00084                 CLRWDT
003F   0008           00085                 RETURN
                      00086 
                      00087 ; ============> 5 mS <===============
                      00088         
0040   3006           00089 DELAY_5:        MOVLW   .6
0041   00C0           00090                 MOVWF   PDel0
0042   30CF           00091 PLoop1:         MOVLW   .207
0043   00C1           00092                 MOVWF   PDel1
0044   0064           00093 PLoop2:         CLRWDT
0045   0BC1           00094                 DECFSZ  PDel1,1
0046   2???           00095                 GOTO    PLoop2
0047   0BC0           00096                 DECFSZ  PDel0,1
0048   2???           00097                 GOTO    PLoop1
0049   2???           00098 Dloop1:         GOTO    DLoop2
004A   0064           00099 DLoop2:         CLRWDT
MPASM 5.86                          MAIN.ASM   8-31-2022  0:07:52         PAGE  4


LOC  OBJECT CODE     LINE SOURCE TEXT
  VALUE

004B   0008           00100                 RETURN
                      00101 
                      00102 
                      00051         INCLUDE "ADC.asm"       ; ADC routines library
                      00001 ; ==============================================================================
                      00002 ; ===================================> ADC <====================================
                      00003 ; ==============================================================================
                      00004 
                      00005         
                      00006         
                      00007         CBLOCK  0X50
  00000050            00008         SHIFT_REG
  00000051            00009         VOLTAGE_L
  00000052            00010         VOLTAGE_H
  00000053            00011         MID_RAN_V
  00000054            00012         ADC_CONT
  00000055            00013         HUNDREDS
  00000056            00014         TENS
  00000057            00015         UNIT
  00000058            00016         TIME
                      00017         ENDC
                      00018         
                      00019 
                      00020 ; ============================> ADC CONVERSION <============================
                      00021 
004C   00D0           00022 ADC_GET:        MOVWF   SHIFT_REG       ; Saves w value into SHIFT_REG
004D   1003           00023                 BCF     STATUS,C        ; Clear Carry before rotation
004E   0DD0           00024                 RLF     SHIFT_REG,F     ; 1 Time left rotation
004F   1003           00025                 BCF     STATUS,C        ; Clear Carry before rotation
0050   0DD0           00026                 RLF     SHIFT_REG,F     ; 2 Times left rotation
0051   1003           00027                 BCF     STATUS,C        ; Clear Carry before rotation
0052   0DD0           00028                 RLF     SHIFT_REG,F     ; 3 Times left rotation
                      00029                 
0053   119F           00030                 BCF     ADCON0,3
0054   121F           00031                 BCF     ADCON0,4
0055   129F           00032                 BCF     ADCON0,5        ; Set Channel 0 by default
                      00033                 
0056   0850           00034                 MOVFW   SHIFT_REG
0057   049F           00035                 IORWF   ADCON0,F        ; Set desired channel using w
                      00036         
0058   130C           00037                 BCF     PIR1,ADIF
0059   3007           00038                 MOVLW   .7
005A   00D4           00039                 MOVWF   ADC_CONT
005B   0BD4           00040                 DECFSZ  ADC_CONT,F
005C   2???           00041                 GOTO    $-1
005D   151F           00042                 BSF     ADCON0,GO
005E   1F0C           00043                 BTFSS   PIR1,ADIF
005F   2???           00044                 GOTO    $-1
0060   130C           00045                 BCF     PIR1,ADIF
                      00046                 
0061   1683 1303      00047                 BANKSEL ADRESL
Message[302]: Register in operand not in bank 0.  Ensure that bank bits are correct.
0063   081E           00048                 MOVFW   ADRESL
MPASM 5.86                          MAIN.ASM   8-31-2022  0:07:52         PAGE  5


LOC  OBJECT CODE     LINE SOURCE TEXT
  VALUE

0064   1283 1303      00049                 BANKSEL ADRESH
0066   00D1           00050                 MOVWF   VOLTAGE_L
                      00051                 
0067   081E           00052                 MOVFW   ADRESH
0068   00D2           00053                 MOVWF   VOLTAGE_H
0069   0008           00054                 RETURN
                      00055                 
                      00056 
006A   01D3           00057 VOLT_TIME_CONV: CLRF    MID_RAN_V
006B   01D8           00058                 CLRF    TIME
                      00059                 
006C   30FF           00060                 MOVLW   .255
006D   0251           00061                 SUBWF   VOLTAGE_L,W
006E   1903           00062                 BTFSC   STATUS,Z
006F   0AD8           00063                 INCF    TIME,F
                      00064                 
                      00065                 
0070   307D           00066                 MOVLW   .125
0071   0251           00067                 SUBWF   VOLTAGE_L,W
0072   1803           00068                 BTFSC   STATUS,C
0073   0AD8           00069                 INCF    TIME,F
                      00070                 
0074   1003           00071 FIXING_VOLT:    BCF     STATUS,C
0075   0D52           00072                 RLF     VOLTAGE_H,W ; Multiply by 2
0076   07D8           00073                 ADDWF   TIME,F  ; Adds medium range voltage if do
                      00074                 
0077   0858           00075                 MOVFW   TIME
0078   0008           00076                 RETURN
                      00077                 
                      00078                 
                      00079                 
                      00080                 
                      00081 
                      00082         
                      00083                 
                      00084                 
                      00052         INCLUDE "Displays.asm"  ; Simple 7 segment table library for 1, 2 and E
                      00001 ; ==============================================================================
                      00002 ; ================================> DISPLAYS <==================================
                      00003 ; ==============================================================================
                      00004         
0079   2???           00005 DISPLAY CALL    TABLE
007A   0088           00006         MOVWF   PORTD
007B   0008           00007         RETURN
                      00008         
007C   0782           00009 TABLE   ADDWF   PCL,F
007D   3400           00010         RETLW   B'00000000'     ; 0, Display Off
007E   3406           00011         RETLW   B'00000110'     ; 1
007F   345B           00012         RETLW   B'01011011'     ; 2
0080   3479           00013         RETLW   B'01111001'     ; E
                      00014         
                      00015 
                      00016 
MPASM 5.86                          MAIN.ASM   8-31-2022  0:07:52         PAGE  6


LOC  OBJECT CODE     LINE SOURCE TEXT
  VALUE

                      00053         
                      00054         ;;;;;;;;;;;;;;;;;;;;;;;;; GENERAL SETUP ;;;;;;;;;;;;;;;;;;;;;;;;;;;;
                      00055         
0081   0000           00056 SETUP   NOP
0082   1683 1303      00057         BANKSEL TRISA
                      00058         ;MOVLW  B'01101010'
                      00059         ;MOVWF  OSCCON
0084   3083           00060         MOVLW   B'10000011'
Message[302]: Register in operand not in bank 0.  Ensure that bank bits are correct.
0085   009F           00061         MOVWF   ADCON1
0086   303F           00062         MOVLW   B'00111111'
Message[302]: Register in operand not in bank 0.  Ensure that bank bits are correct.
0087   0085           00063         MOVWF   TRISA   ; RA0 as Input
                      00064         
0088   3001           00065         MOVLW   .1
0089   0086           00066         MOVWF   PORTB   ; RB0 as Input for Stop Button
008A   0089           00067         MOVWF   PORTE   ; RE0 as Input for Operation Mode Switch
                      00068         
Message[302]: Register in operand not in bank 0.  Ensure that bank bits are correct.
008B   0187           00069         CLRF    TRISC   ; PORTC as Output
Message[302]: Register in operand not in bank 0.  Ensure that bank bits are correct.
008C   0188           00070         CLRF    TRISD   ; PORTD as Output
                      00071                                         
Message[302]: Register in operand not in bank 0.  Ensure that bank bits are correct.
008D   1781           00072         BSF     OPTION_REG,7            ; Disables Internal Portb Pullups
                      00073         
Message[302]: Register in operand not in bank 0.  Ensure that bank bits are correct.
008E   1701           00074         BSF     OPTION_REG,INTEDG       ; Enables RB0 to interrupt on rising
                      00075                                         ; edge
                      00076 ;       BCF     OPTION_REG,INTEDG       ; Enables RB0 to interrupt on falling
                      00077                                         ; edge
                      00078                                         
                      00079 ;       BCF     OPTION_REG,RBPU         ; Enables Internal Portb Pullups
                      00080         
008F   1283 1303      00081         BANKSEL PORTA   ; Return to Bank0 (Bank where PORTA reg is located)
                      00082         
                      00083         ;;;;;;;;;;;;;;;;;;;;;;;;;;; ADC SETUP ;;;;;;;;;;;;;;;;;;;;;;;;;;;;;;
                      00084         
0091   30C1           00085         MOVLW   B'11000001'
0092   009F           00086         MOVWF   ADCON0
                      00087         
                      00088         ;;;;;;;;;;;;;;;;;;;;;;;;;; PORTS CLEAR ;;;;;;;;;;;;;;;;;;;;;;;;;;;;;
                      00089 
0093   0187           00090         CLRF    PORTC   ; Clear Portc
0094   0188           00091         CLRF    PORTD   ; Clear Portd
0095   0189           00092         CLRF    PORTE   ; Clear Porte
                      00093         
                      00094         ;;;;;;;;;;;;;;;;;;;;;;;;;;; TMR1 SETUP ;;;;;;;;;;;;;;;;;;;;;;;;;;;;;;
                      00095         
0096   3002           00096         MOVLW   .2
0097   00A2           00097         MOVWF   TMR1_TICK
                      00098         
0098   3030           00099         MOVLW   B'00110000'
MPASM 5.86                          MAIN.ASM   8-31-2022  0:07:52         PAGE  7


LOC  OBJECT CODE     LINE SOURCE TEXT
  VALUE

0099   0090           00100         MOVWF   T1CON
                      00101         
009A   2???           00102         CALL    TMR1_LD
                      00103         
                      00104         ; TMR1 INTERRUPT SETUP
                      00105         
009B   1683 1303      00106         BANKSEL PIE1            ; Switch to bank which PIE1 is located
Message[302]: Register in operand not in bank 0.  Ensure that bank bits are correct.
009D   140C           00107         BSF     PIE1,TMR1IE     ; TMR1 Interrupt Enable
009E   1283 1303      00108         BANKSEL PIR1            ; Return to bank 0 where PIR1 is located
                      00109         
00A0   170B           00110         BSF     INTCON,PEIE     ; Peripheral Interrupt Enable (for TMR1 Enable)
                      00111         
                      00112         ;;;;;;;;;;;;;; STOP BUTTON AND INTERNAL INTERRUP SETUP ;;;;;;;;;;;;;;
                      00113         
00A1   158B           00114         BSF     INTCON,RBIE
00A2   178B           00115         BSF     INTCON,GIE      ; General Interrupt Enable
                      00116         
                      00117         ;;;;;;;;;;;;;;;;;;;;; VARIABLES INITIALIZATION ;;;;;;;;;;;;;;;;;;;;;;
                      00118         
00A3   3001           00119         MOVLW   OP_SING         
00A4   00A3           00120         MOVWF   OPER_MODE       ; Single mode by default
                      00121         
                      00122         ;;;;;;;;;;;;;;;;;;;;;;;;;;;; END OF SETUP ;;;;;;;;;;;;;;;;;;;;;;;;;;;
                      00123         
00A5   2???           00124         GOTO    ITERATS
                      00125         
                      00126         
                      00127         
                      00128         
                      00129 ;;;;;;;;;;;;;;;;;;;;;;;;;;;;;; INTERATIONS ;;;;;;;;;;;;;;;;;;;;;;;;;;;;;;;;;;;;;
                      00130         
                      00131         
00A6   01AA           00132 ITERATS CLRF    TOTAL_TIME
                      00133         
                      00134         ; Pot1 Time value read
00A7   3000           00135         MOVLW   .0              ; Channel 0 selected
00A8   2???           00136         CALL    ADC_GET         ; Save ADC Values
00A9   2???           00137         CALL    VOLT_TIME_CONV  ; Volt to time conversion
00AA   00A4           00138         MOVWF   TIME1           ; Store value on TIME1
00AB   00AB           00139         MOVWF   TIME1_BK        ; Backup for later interrupt purposes
00AC   07AA           00140         ADDWF   TOTAL_TIME,F    ; Add time read to TOTAL_TIME
                      00141         
                      00142         ; Pot2 Time value read
00AD   3001           00143         MOVLW   .1              ; Channel 1 selected
00AE   2???           00144         CALL    ADC_GET
00AF   2???           00145         CALL    VOLT_TIME_CONV
00B0   00A5           00146         MOVWF   TIME2           ; Store value on TIME1
00B1   00AC           00147         MOVWF   TIME2_BK        ; Backup for later interrupt purposes
00B2   07AA           00148         ADDWF   TOTAL_TIME,F
                      00149         
                      00150         ; Pot3 Time value read
00B3   3002           00151         MOVLW   .2              ; Channel 2 selected
MPASM 5.86                          MAIN.ASM   8-31-2022  0:07:52         PAGE  8


LOC  OBJECT CODE     LINE SOURCE TEXT
  VALUE

00B4   2???           00152         CALL    ADC_GET
00B5   2???           00153         CALL    VOLT_TIME_CONV
00B6   00A6           00154         MOVWF   TIME3           ; Store value on TIME1
00B7   00AD           00155         MOVWF   TIME3_BK        ; Backup for later interrupt purposes
00B8   07AA           00156         ADDWF   TOTAL_TIME,F
                      00157         
                      00158         ; Pot4 Time value read
00B9   3004           00159         MOVLW   .4              ; Channel 4 selected
00BA   2???           00160         CALL    ADC_GET
00BB   2???           00161         CALL    VOLT_TIME_CONV
00BC   00A7           00162         MOVWF   TIME4           ; Store value on TIME1
00BD   00AE           00163         MOVWF   TIME4_BK        ; Backup for later interrupt purposes
00BE   07AA           00164         ADDWF   TOTAL_TIME,F
                      00165         
                      00166         
                      00167         
                      00168         
                      00169         ; Checks if individual times are less than 1 seg
00BF   3001           00170         MOVLW   .1
00C0   0224           00171         SUBWF   TIME1,W
00C1   1C03           00172         BTFSS   STATUS,C
00C2   2???           00173         GOTO    ITERATS         ; Less than 0, return and check again
00C3   3001           00174         MOVLW   .1
00C4   0225           00175         SUBWF   TIME2,W
00C5   1C03           00176         BTFSS   STATUS,C
00C6   2???           00177         GOTO    ITERATS         ; Less than 0, return and check again
00C7   3001           00178         MOVLW   .1
00C8   0226           00179         SUBWF   TIME3,W
00C9   1C03           00180         BTFSS   STATUS,C
00CA   2???           00181         GOTO    ITERATS         ; Less than 0, return and check again
00CB   3001           00182         MOVLW   .1
00CC   0227           00183         SUBWF   TIME4,W
00CD   1C03           00184         BTFSS   STATUS,C
00CE   2???           00185         GOTO    ITERATS         ; Less than 0, return and check again
                      00186         
                      00187         ; Checks pass, now lets check the total time if it is in the range
                      00188         ; of 4 to 10
                      00189         
00CF   300A           00190         MOVLW   .10
00D0   022A           00191         SUBWF   TOTAL_TIME,W    ; Checks if TOTAL_TIME > 10
00D1   1C03           00192         BTFSS   STATUS,C        ; Check status looking for the carrier
00D2   2???           00193         GOTO    OP_SEL          ; if do, the system goes to operation mode check
00D3   2???           00194         GOTO    ITERATS         ; else, we need to restart interations
                      00195         
                      00196 
                      00197 ;;;;;;;;;;;;;;;;;;;;;;; OPERATION MODE SWITCH CHECK ;;;;;;;;;;;;;;;;;;;;;;;;;;;;
                      00198         
                      00199 
00D4   1C09           00200 OP_SEL  BTFSS   PORTE,0
00D5   2???           00201         GOTO    OP_SG           ; Switch open, Single Mode selected
00D6   2???           00202         GOTO    OP_DB1
                      00203         
00D7   3001           00204 OP_SG   MOVLW   .1
MPASM 5.86                          MAIN.ASM   8-31-2022  0:07:52         PAGE  9


LOC  OBJECT CODE     LINE SOURCE TEXT
  VALUE

00D8   00A3           00205         MOVWF   OPER_MODE
00D9   2???           00206         CALL    DISPLAY
00DA   2???           00207         GOTO    MAIN_SG         ; Just start main single mode, there is nothing 
                      00208                                 ; else to do
                      00209         
                      00210 ; Checks which one is greater, TIME1 or TIME3
00DB   0824           00211 OP_DB1  MOVFW   TIME1
00DC   0226           00212         SUBWF   TIME3,W
00DD   1C03           00213         BTFSS   STATUS,C
00DE   2???           00214         GOTO    T1_WINS
00DF   2???           00215         GOTO    T3_WINS
                      00216         
00E0   0824           00217 T1_WINS MOVFW   TIME1
00E1   00A8           00218         MOVWF   TIME1_D
00E2   2???           00219         GOTO    OP_DB2
                      00220         
00E3   0826           00221 T3_WINS MOVFW   TIME3
00E4   00A8           00222         MOVWF   TIME1_D
00E5   2???           00223         GOTO    OP_DB2
                      00224         
                      00225 ; Checks which one is greater, TIME1 or TIME3
                      00226         
00E6   0825           00227 OP_DB2  MOVFW   TIME2
00E7   0227           00228         SUBWF   TIME4,W
00E8   1C03           00229         BTFSS   STATUS,C
00E9   2???           00230         GOTO    T2_WINS
00EA   2???           00231         GOTO    T4_WINS
                      00232         
00EB   0825           00233 T2_WINS MOVFW   TIME2
00EC   00A9           00234         MOVWF   TIME2_D
00ED   2???           00235         GOTO    OP_DB3
                      00236         
00EE   0827           00237 T4_WINS MOVFW   TIME4
00EF   00A9           00238         MOVWF   TIME2_D
00F0   2???           00239         GOTO    OP_DB3
                      00240         
00F1   3002           00241 OP_DB3  MOVLW   OP_DOUB
00F2   00A3           00242         MOVWF   OPER_MODE
00F3   2???           00243         CALL    DISPLAY
                      00244         
00F4   0801           00245         MOVFW   OP_SING
00F5   2???           00246         GOTO    MAIN_DB         ; Starts Double program
                      00247         
                      00248 ;;;;;;;;;;;;;;;;;;;;;;;;;;;;;;;;;;;;;;;;;;;;;;;;;;;;;;;;;;;;;;;;;;;;;;;;;;;;;;;;
                      00249 ;;;;;;;;;;;;;;;;;;;;;;;;;;;;;; SINGLE MODE PROGRAM ;;;;;;;;;;;;;;;;;;;;;;;;;;;;;
                      00250 ;;;;;;;;;;;;;;;;;;;;;;;;;;;;;;;;;;;;;;;;;;;;;;;;;;;;;;;;;;;;;;;;;;;;;;;;;;;;;;;;
                      00251         
00F6                  00252 MAIN_SG 
                      00253         
                      00254         
                      00255         
                      00256         
                      00257         
MPASM 5.86                          MAIN.ASM   8-31-2022  0:07:52         PAGE 10


LOC  OBJECT CODE     LINE SOURCE TEXT
  VALUE

                      00258         
                      00259         
                      00260         
                      00261         
00F6   2???           00262         GOTO    MAIN_SG
                      00263         
                      00264 
                      00265 ;;;;;;;;;;;;;;;;;;;;;;;;;;;;;;;;;;;;;;;;;;;;;;;;;;;;;;;;;;;;;;;;;;;;;;;;;;;;;;;;
                      00266 ;;;;;;;;;;;;;;;;;;;;;;;;;;;;; DOUBLE MODE PROGRAM ;;;;;;;;;;;;;;;;;;;;;;;;;;;;;;
                      00267 ;;;;;;;;;;;;;;;;;;;;;;;;;;;;;;;;;;;;;;;;;;;;;;;;;;;;;;;;;;;;;;;;;;;;;;;;;;;;;;;;
                      00268         
                      00269 
00F7                  00270 MAIN_DB 
                      00271         
                      00272         
                      00273         
                      00274         
                      00275         
                      00276         
                      00277         
                      00278         
00F7   2???           00279         GOTO    MAIN_DB
                      00280         
                      00281 
                      00282 
                      00283 ;;;;;;;;;;;;;;;;;;;;;;;;;;;;;;;;;;;;;;;;;;;;;;;;;;;;;;;;;;;;;;;;;;;;;;;;;;;;;;;;
                      00284 ;;;;;;;;;;;;;;;;;;;;;;;;;;;;;;;;;;;;; ISR ;;;;;;;;;;;;;;;;;;;;;;;;;;;;;;;;;;;;;;
                      00285 ;;;;;;;;;;;;;;;;;;;;;;;;;;;;;;;;;;;;;;;;;;;;;;;;;;;;;;;;;;;;;;;;;;;;;;;;;;;;;;;;
                      00286         
00F8   00A0           00287 IRQ     MOVWF   BACKUP_W        ; w and status backup
00F9   0803           00288         MOVFW   STATUS
00FA   00A1           00289         MOVWF   BACKUP_STA
                      00290         
00FB   180C           00291         BTFSC   PIR1,TMR1IF
00FC   2???           00292         GOTO    TMR_IRQ
                      00293         
00FD   180B           00294         BTFSC   INTCON,RBIF
00FE   2???           00295         GOTO    STP_IRQ
00FF   2???           00296         GOTO    RFI
                      00297         
                      00298 ;;;;;;;;;;;;;;;;;;;;;;;;;;;;;;;; TMR1 INTERRUPT ;;;;;;;;;;;;;;;;;;;;;;;;;;;;;;;;
                      00299         
0100   0BA2           00300 TMR_IRQ DECFSZ  TMR1_TICK,F     ; Ask if tick = 2
0101   2???           00301         GOTO    RFI             ; If not, return from interrupt
                      00302         
0102   3002           00303         MOVLW   .2              ; If afirmative...
0103   00A2           00304         MOVWF   TMR1_TICK       ; Tick Reload
                      00305         
0104   3002           00306         MOVLW   .2
0105   0689           00307         XORWF   PORTE,F         ; Just keepalive led toggle
                      00308         
                      00309         
0106   0103           00310         CLRW
MPASM 5.86                          MAIN.ASM   8-31-2022  0:07:52         PAGE 11


LOC  OBJECT CODE     LINE SOURCE TEXT
  VALUE

0107   06A4           00311         XORWF   TIME1,F
0108   1D03           00312         BTFSS   STATUS,Z
0109   2???           00313         GOTO    S1_CONT
010A   0103           00314         CLRW
010B   06A5           00315         XORWF   TIME2,F
010C   1D03           00316         BTFSS   STATUS,Z
010D   2???           00317         GOTO    S2_CONT
010E   0103           00318         CLRW
010F   06A6           00319         XORWF   TIME3,F
0110   1D03           00320         BTFSS   STATUS,Z
0111   2???           00321         GOTO    S3_CONT
0112   0103           00322         CLRW
0113   06A7           00323         XORWF   TIME4,F
0114   1D03           00324         BTFSS   STATUS,Z
0115   2???           00325         GOTO    S4_CONT
                      00326         
                      00327         
0116   082B           00328         MOVFW   TIME1_BK        ; Once a cycle is completed, the values are restored
0117   00A4           00329         MOVWF   TIME1           ; and the process restarts again
                      00330         
0118   082C           00331         MOVFW   TIME2_BK
0119   00A5           00332         MOVWF   TIME2
                      00333         
011A   082D           00334         MOVFW   TIME3_BK
011B   00A6           00335         MOVWF   TIME3
                      00336         
011C   082E           00337         MOVFW   TIME4_BK
011D   00A7           00338         MOVWF   TIME4
                      00339         
                      00340         
                      00341         
011E   0BA4           00342         DECFSZ  TIME1,F
011F   2???           00343         GOTO    S1_CONT         ; Single mode Traffic Light 1 control
0120   0BA5           00344         DECFSZ  TIME2,F
0121   2???           00345         GOTO    S2_CONT         ; Single mode Traffic Light 2 control
0122   0BA6           00346         DECFSZ  TIME3,F
0123   2???           00347         GOTO    S3_CONT         ; Single mode Traffic Light 3 control
0124   0BA7           00348         DECFSZ  TIME4,F
0125   2???           00349         GOTO    S4_CONT         ; Single mode Traffic Light 4 control
                      00350         
0126   03A4           00351 S1_CONT DECF    TIME1,F
0127   3056           00352         MOVLW   B'01010110'
0128   0087           00353         MOVWF   PORTC
0129   2???           00354         GOTO    RFI
                      00355         
012A   03A5           00356 S2_CONT DECF    TIME2,F
012B   3059           00357         MOVLW   B'01011001'
012C   0087           00358         MOVWF   PORTC
012D   2???           00359         GOTO    RFI
                      00360         
012E   03A6           00361 S3_CONT DECF    TIME3,F
012F   3065           00362         MOVLW   B'01100101'
0130   0087           00363         MOVWF   PORTC
MPASM 5.86                          MAIN.ASM   8-31-2022  0:07:52         PAGE 12


LOC  OBJECT CODE     LINE SOURCE TEXT
  VALUE

0131   2???           00364         GOTO    RFI
                      00365         
0132   03A7           00366 S4_CONT DECF    TIME4,F
0133   3095           00367         MOVLW   B'10010101'
0134   0087           00368         MOVWF   PORTC
                      00369         
0135   2???           00370         GOTO    RFI
                      00371         
                      00372 
                      00373 ;;;;;;;;;;;;;;;;;;;;;;;;;;;;;;;;; RB0 INTERRUPT ;;;;;;;;;;;;;;;;;;;;;;;;;;;;;;;;
                      00374         
                      00375         
0136   3003           00376 STP_IRQ MOVLW   OP_EMER
0137   00A3           00377         MOVWF   OPER_MODE
0138   100B           00378         BCF     INTCON,RBIF
0139   2???           00379         GOTO    RFI
                      00380         
                      00381 
                      00382 ;;;;;;;;;;;;;;;;;;;;;;;;;;;;; RETURN FROM INTERRUPT ;;;;;;;;;;;;;;;;;;;;;;;;;;;;
                      00383         
013A   100C           00384 RFI     BCF     PIR1,TMR1IF
                      00385         
013B   0821           00386         MOVFW   BACKUP_STA      ; w and status restore
013C   0083           00387         MOVWF   STATUS
013D   0820           00388         MOVFW   BACKUP_W
013E   0009           00389         RETFIE
                      00390         
                      00391         
3F39                  00392         END
MPASM 5.86                          MAIN.ASM   8-31-2022  0:07:52         PAGE 13


SYMBOL TABLE
  LABEL                             VALUE 

ACKDT                             00000005
ACKEN                             00000004
ACKSTAT                           00000006
ADCON0                            0000001F
ADCON1                            0000009F
ADCS0                             00000006
ADCS1                             00000007
ADCS2                             00000006
ADC_CONT                          00000054
ADC_GET                           0000004C
ADDEN                             00000003
ADFM                              00000007
ADIE                              00000006
ADIF                              00000006
ADON                              00000000
ADRESH                            0000001E
ADRESL                            0000009E
BACKUP_STA                        00000021
BACKUP_W                          00000020
BCLIE                             00000003
BCLIF                             00000003
BF                                00000000
BRGH                              00000002
C                                 00000000
C1INV                             00000004
C1OUT                             00000006
C2INV                             00000005
C2OUT                             00000007
CCP1CON                           00000017
CCP1IE                            00000002
CCP1IF                            00000002
CCP1M0                            00000000
CCP1M1                            00000001
CCP1M2                            00000002
CCP1M3                            00000003
CCP1X                             00000005
CCP1Y                             00000004
CCP2CON                           0000001D
CCP2IE                            00000000
CCP2IF                            00000000
CCP2M0                            00000000
CCP2M1                            00000001
CCP2M2                            00000002
CCP2M3                            00000003
CCP2X                             00000005
CCP2Y                             00000004
CCPR1                             00000015
CCPR1H                            00000016
CCPR1L                            00000015
CCPR2                             0000001B
CCPR2H                            0000001C
CCPR2L                            0000001B
CHS0                              00000003
MPASM 5.86                          MAIN.ASM   8-31-2022  0:07:52         PAGE 14


SYMBOL TABLE
  LABEL                             VALUE 

CHS1                              00000004
CHS2                              00000005
CIS                               00000003
CKE                               00000006
CKP                               00000004
CM0                               00000000
CM1                               00000001
CM2                               00000002
CMCON                             0000009C
CMIE                              00000006
CMIF                              00000006
CREN                              00000004
CSRC                              00000007
CVR0                              00000000
CVR1                              00000001
CVR2                              00000002
CVR3                              00000003
CVRCON                            0000009D
CVREN                             00000007
CVROE                             00000006
CVRR                              00000005
D                                 00000005
DATA_ADDRESS                      00000005
DC                                00000001
DELAY_100                         0000001C
DELAY_20                          00000035
DELAY_5                           00000040
DELAY_50                          0000002A
DELAY_500                         0000000B
DISPLAY                           00000079
DLoop10                           00000018
DLoop11                           00000019
DLoop12                           0000001A
DLoop2                            0000004A
DLoop3                            00000026
DLoop4                            00000027
DLoop5                            00000028
DLoop6                            00000010
DLoop7                            00000011
DLoop8                            00000012
DLoop9                            00000017
D_A                               00000005
D_NOT_A                           00000005
Dloop1                            00000049
EEADR                             0000010D
EEADRH                            0000010F
EECON1                            0000018C
EECON2                            0000018D
EEDATA                            0000010C
EEDATH                            0000010E
EEIE                              00000004
EEIF                              00000004
EEPGD                             00000007
MPASM 5.86                          MAIN.ASM   8-31-2022  0:07:52         PAGE 15


SYMBOL TABLE
  LABEL                             VALUE 

F                                 00000001
FERR                              00000002
FIXING_VOLT                       00000074
FSR                               00000004
GCEN                              00000007
GIE                               00000007
GO                                00000002
GO_DONE                           00000002
GO_NOT_DONE                       00000002
HUNDREDS                          00000055
I2C_DATA                          00000005
I2C_READ                          00000002
I2C_START                         00000003
I2C_STOP                          00000004
IBF                               00000007
IBOV                              00000005
INDF                              00000000
INTCON                            0000000B
INTE                              00000004
INTEDG                            00000006
INTF                              00000001
IRP                               00000007
IRQ                               000000F8
ITERATS                           000000A6
MAIN_DB                           000000F7
MAIN_SG                           000000F6
MID_RAN_V                         00000053
NOT_A                             00000005
NOT_ADDRESS                       00000005
NOT_BO                            00000000
NOT_BOR                           00000000
NOT_DONE                          00000002
NOT_PD                            00000003
NOT_POR                           00000001
NOT_RBPU                          00000007
NOT_RC8                           00000006
NOT_T1SYNC                        00000002
NOT_TO                            00000004
NOT_TX8                           00000006
NOT_W                             00000002
NOT_WRITE                         00000002
OBF                               00000006
OERR                              00000001
OPER_MODE                         00000023
OPTION_REG                        00000081
OP_DB1                            000000DB
OP_DB2                            000000E6
OP_DB3                            000000F1
OP_DOUB                           2
OP_EMER                           3
OP_SEL                            000000D4
OP_SG                             000000D7
OP_SING                           1
MPASM 5.86                          MAIN.ASM   8-31-2022  0:07:52         PAGE 16


SYMBOL TABLE
  LABEL                             VALUE 

P                                 00000004
PCFG0                             00000000
PCFG1                             00000001
PCFG2                             00000002
PCFG3                             00000003
PCL                               00000002
PCLATH                            0000000A
PCON                              0000008E
PDel0                             00000040
PDel1                             00000041
PDel2                             00000042
PEIE                              00000006
PEN                               00000002
PIE1                              0000008C
PIE2                              0000008D
PIR1                              0000000C
PIR2                              0000000D
PLoop1                            00000042
PLoop13                           0000002C
PLoop14                           0000002E
PLoop15                           00000037
PLoop16                           00000039
PLoop2                            00000044
PLoop3                            0000001E
PLoop4                            00000020
PLoop5                            0000000D
PLoop6                            0000000F
PORTA                             00000005
PORTB                             00000006
PORTC                             00000007
PORTD                             00000008
PORTE                             00000009
PR2                               00000092
PS0                               00000000
PS1                               00000001
PS2                               00000002
PSA                               00000003
PSPIE                             00000007
PSPIF                             00000007
PSPMODE                           00000004
R                                 00000002
RA0                               00000000
RA1                               00000001
RA2                               00000002
RA3                               00000003
RA4                               00000004
RA5                               00000005
RB0                               00000000
RB1                               00000001
RB2                               00000002
RB3                               00000003
RB4                               00000004
RB5                               00000005
MPASM 5.86                          MAIN.ASM   8-31-2022  0:07:52         PAGE 17


SYMBOL TABLE
  LABEL                             VALUE 

RB6                               00000006
RB7                               00000007
RBIE                              00000003
RBIF                              00000000
RC0                               00000000
RC1                               00000001
RC2                               00000002
RC3                               00000003
RC4                               00000004
RC5                               00000005
RC6                               00000006
RC7                               00000007
RC8_9                             00000006
RC9                               00000006
RCD8                              00000000
RCEN                              00000003
RCIE                              00000005
RCIF                              00000005
RCREG                             0000001A
RCSTA                             00000018
RD                                00000000
RD0                               00000000
RD1                               00000001
RD2                               00000002
RD3                               00000003
RD4                               00000004
RD5                               00000005
RD6                               00000006
RD7                               00000007
RE0                               00000000
RE1                               00000001
RE2                               00000002
READ_WRITE                        00000002
RFI                               0000013A
RP0                               00000005
RP1                               00000006
RSEN                              00000001
RX9                               00000006
RX9D                              00000000
R_NOT_W                           00000002
R_W                               00000002
S                                 00000003
S1_CONT                           00000126
S2_CONT                           0000012A
S3_CONT                           0000012E
S4_CONT                           00000132
SEN                               00000000
SETUP                             00000081
SHIFT_REG                         00000050
SMP                               00000007
SPBRG                             00000099
SPEN                              00000007
SREN                              00000005
MPASM 5.86                          MAIN.ASM   8-31-2022  0:07:52         PAGE 18


SYMBOL TABLE
  LABEL                             VALUE 

SSPADD                            00000093
SSPBUF                            00000013
SSPCON                            00000014
SSPCON2                           00000091
SSPEN                             00000005
SSPIE                             00000003
SSPIF                             00000003
SSPM0                             00000000
SSPM1                             00000001
SSPM2                             00000002
SSPM3                             00000003
SSPOV                             00000006
SSPSTAT                           00000094
STATUS                            00000003
STP_IRQ                           00000136
SYNC                              00000004
T0CS                              00000005
T0IE                              00000005
T0IF                              00000002
T0SE                              00000004
T1CKPS0                           00000004
T1CKPS1                           00000005
T1CON                             00000010
T1INSYNC                          00000002
T1OSCEN                           00000003
T1SYNC                            00000002
T1_WINS                           000000E0
T2CKPS0                           00000000
T2CKPS1                           00000001
T2CON                             00000012
T2_WINS                           000000EB
T3_WINS                           000000E3
T4_WINS                           000000EE
TABLE                             0000007C
TENS                              00000056
TIME                              00000058
TIME1                             00000024
TIME1_BK                          0000002B
TIME1_D                           00000028
TIME2                             00000025
TIME2_BK                          0000002C
TIME2_D                           00000029
TIME3                             00000026
TIME3_BK                          0000002D
TIME4                             00000027
TIME4_BK                          0000002E
TMR0                              00000001
TMR0IE                            00000005
TMR0IF                            00000002
TMR1                              0000000E
TMR1CS                            00000001
TMR1H                             0000000F
TMR1IE                            00000000
MPASM 5.86                          MAIN.ASM   8-31-2022  0:07:52         PAGE 19


SYMBOL TABLE
  LABEL                             VALUE 

TMR1IF                            00000000
TMR1L                             0000000E
TMR1ON                            00000000
TMR1_LD                           00000005
TMR1_TICK                         00000022
TMR2                              00000011
TMR2IE                            00000001
TMR2IF                            00000001
TMR2ON                            00000002
TMR_IRQ                           00000100
TOTAL_TIME                        0000002A
TOUTPS0                           00000003
TOUTPS1                           00000004
TOUTPS2                           00000005
TOUTPS3                           00000006
TRISA                             00000085
TRISA0                            00000000
TRISA1                            00000001
TRISA2                            00000002
TRISA3                            00000003
TRISA4                            00000004
TRISA5                            00000005
TRISB                             00000086
TRISB0                            00000000
TRISB1                            00000001
TRISB2                            00000002
TRISB3                            00000003
TRISB4                            00000004
TRISB5                            00000005
TRISB6                            00000006
TRISB7                            00000007
TRISC                             00000087
TRISC0                            00000000
TRISC1                            00000001
TRISC2                            00000002
TRISC3                            00000003
TRISC4                            00000004
TRISC5                            00000005
TRISC6                            00000006
TRISC7                            00000007
TRISD                             00000088
TRISD0                            00000000
TRISD1                            00000001
TRISD2                            00000002
TRISD3                            00000003
TRISD4                            00000004
TRISD5                            00000005
TRISD6                            00000006
TRISD7                            00000007
TRISE                             00000089
TRISE0                            00000000
TRISE1                            00000001
TRISE2                            00000002
MPASM 5.86                          MAIN.ASM   8-31-2022  0:07:52         PAGE 20


SYMBOL TABLE
  LABEL                             VALUE 

TRMT                              00000001
TX8_9                             00000006
TX9                               00000006
TX9D                              00000000
TXD8                              00000000
TXEN                              00000005
TXIE                              00000004
TXIF                              00000004
TXREG                             00000019
TXSTA                             00000098
UA                                00000001
UNIT                              00000057
VOLTAGE_H                         00000052
VOLTAGE_L                         00000051
VOLT_TIME_CONV                    0000006A
W                                 00000000
WCOL                              00000007
WR                                00000001
WREN                              00000002
WRERR                             00000003
Z                                 00000002
_.org_1_005C                      0000005C
_.org_1_005F                      0000005F
_BODEN_OFF                        00003FBF
_BODEN_ON                         00003FFF
_BOREN_OFF                        00003FBF
_BOREN_ON                         00003FFF
_CONFIG                           00002007
_CPD_OFF                          00003FFF
_CPD_ON                           00003EFF
_CP_ALL                           00001FFF
_CP_OFF                           00003FFF
_CP_ON                            00001FFF
_DEBUG_OFF                        00003FFF
_DEBUG_ON                         000037FF
_DEVID1                           00002006
_FOSC_EXTRC                       00003FFF
_FOSC_HS                          00003FFE
_FOSC_LP                          00003FFC
_FOSC_XT                          00003FFD
_HS_OSC                           00003FFE
_IDLOC0                           00002000
_IDLOC1                           00002001
_IDLOC2                           00002002
_IDLOC3                           00002003
_LP_OSC                           00003FFC
_LVP_OFF                          00003F7F
_LVP_ON                           00003FFF
_PWRTE_OFF                        00003FFF
_PWRTE_ON                         00003FF7
_RC_OSC                           00003FFF
_WDTE_OFF                         00003FFB
_WDTE_ON                          00003FFF
MPASM 5.86                          MAIN.ASM   8-31-2022  0:07:52         PAGE 21


SYMBOL TABLE
  LABEL                             VALUE 

_WDT_OFF                          00003FFB
_WDT_ON                           00003FFF
_WRT_1FOURTH                      00003BFF
_WRT_256                          00003DFF
_WRT_HALF                         000039FF
_WRT_OFF                          00003FFF
_XT_OSC                           00003FFD
__16F877A                         00000001

Errors   :     0
Warnings :     0 reported,     0 suppressed
Messages :     8 reported,     0 suppressed

